Certificate:
    Data:
        Version: 1 (0x0)
        Serial Number: 1 (0x1)
        Signature Algorithm: sha256WithRSAEncryption
        Issuer: O=GTJAQH, OU=GTJAQHTech, CN=LucyCA/emailAddress=zhuchen025113@gtjas.com
        Validity
            Not Before: Sep 18 01:48:30 2023 GMT
            Not After : Aug 25 01:48:30 2123 GMT
        Subject: C=CN, ST=ShangHai, L=ShangHai, O=GTJAQH, OU=GTJAQHTech, CN=LucyCA/emailAddress=zhuchen025113@gtjas.com
        Subject Public Key Info:
            Public Key Algorithm: rsaEncryption
                RSA Public-Key: (2048 bit)
                Modulus:
                    00:f6:e2:45:6f:94:4e:a9:1a:f6:d0:bd:da:6d:78:
                    30:a0:2a:08:a5:b0:99:c1:e0:58:ff:e8:e7:64:a5:
                    d5:39:79:b3:de:c1:8d:29:9c:20:84:4f:aa:56:f5:
                    58:9e:8e:d4:6b:b9:ff:c2:62:d6:95:8b:37:36:ac:
                    90:2b:c6:97:23:1a:1c:bf:4c:28:1d:eb:76:8b:69:
                    db:28:ca:52:6c:e7:ce:85:b6:39:f0:57:0d:0c:2d:
                    aa:79:d4:c4:56:f4:57:9a:4e:19:00:01:af:03:26:
                    24:d6:00:00:59:36:78:c2:8f:56:bb:d7:67:08:2a:
                    3c:46:09:c1:cb:4a:58:a8:6b:be:55:08:f8:22:83:
                    2d:2d:5d:c1:6e:dd:4c:f5:44:e3:5d:1f:27:04:bd:
                    f1:47:ee:54:c5:81:c7:68:c0:f0:b5:fd:5d:f5:20:
                    17:5e:06:7b:2f:b9:c1:d5:35:9c:f6:e0:7b:9a:33:
                    d8:25:bd:a9:2a:3f:8d:b0:ee:fc:b2:d0:92:55:42:
                    23:d5:c0:6c:30:fb:a0:f9:0b:0e:93:94:65:ad:c1:
                    16:f9:20:04:a8:4c:df:ee:e5:64:8a:38:ed:0b:89:
                    6b:ea:dd:1d:2c:4e:eb:5c:d5:04:37:4d:e5:ec:22:
                    64:5f:22:09:80:4b:9c:fc:19:ea:a1:3f:b9:91:21:
                    38:97
                Exponent: 65537 (0x10001)
    Signature Algorithm: sha256WithRSAEncryption
         54:67:39:1a:1e:22:7f:60:21:14:d9:34:d0:5b:cb:ee:7c:53:
         a9:74:53:b2:38:98:5b:1f:d3:fd:f5:c1:cc:c4:e5:c0:45:2f:
         1d:b7:ec:f1:dd:5f:13:50:db:44:af:89:17:99:5c:5f:c4:87:
         ef:00:96:79:c8:c9:0c:03:c5:cb:00:ac:42:46:e0:ef:28:c4:
         6a:80:06:b5:7f:48:5d:9e:7f:64:cc:20:27:93:e2:48:2d:f7:
         1e:9e:3e:ba:91:ab:09:78:3e:f6:61:07:84:19:4f:60:d3:9a:
         7d:9c:87:dc:2f:3d:d1:72:62:fc:9b:c4:6c:4a:de:89:b8:59:
         f7:96:0a:ef:6d:cb:56:1b:6b:4b:1d:4b:8b:46:ac:99:58:d3:
         d3:1d:24:d0:6e:ab:38:6c:8e:a2:81:3b:83:1d:ae:0d:e5:33:
         5d:d1:28:c3:24:9d:78:c0:0f:cb:8a:94:c6:f9:62:12:f5:5a:
         2b:26:70:f8:85:1e:41:03:7f:30:e8:12:17:f6:33:9f:a3:b1:
         8e:f6:2b:60:f3:67:6e:fb:84:61:ab:1f:af:c7:ce:f4:1f:a1:
         10:dc:90:d6:0f:9f:85:e2:5e:9f:7e:c3:37:ec:a1:2f:fc:57:
         42:20:af:06:d7:76:98:c9:5c:10:db:3c:27:e0:66:b9:b3:93:
         97:df:66:5d
-----BEGIN CERTIFICATE-----
MIIDaDCCAlACAQEwDQYJKoZIhvcNAQELBQAwXzEPMA0GA1UECgwGR1RKQVFIMRMw
EQYDVQQLDApHVEpBUUhUZWNoMQ8wDQYDVQQDDAZMdWN5Q0ExJjAkBgkqhkiG9w0B
CQEWF3podWNoZW4wMjUxMTNAZ3RqYXMuY29tMCAXDTIzMDkxODAxNDgzMFoYDzIx
MjMwODI1MDE0ODMwWjCBkjELMAkGA1UEBhMCQ04xETAPBgNVBAgMCFNoYW5nSGFp
MREwDwYDVQQHDAhTaGFuZ0hhaTEPMA0GA1UECgwGR1RKQVFIMRMwEQYDVQQLDApH
VEpBUUhUZWNoMQ8wDQYDVQQDDAZMdWN5Q0ExJjAkBgkqhkiG9w0BCQEWF3podWNo
ZW4wMjUxMTNAZ3RqYXMuY29tMIIBIjANBgkqhkiG9w0BAQEFAAOCAQ8AMIIBCgKC
AQEA9uJFb5ROqRr20L3abXgwoCoIpbCZweBY/+jnZKXVOXmz3sGNKZwghE+qVvVY
no7Ua7n/wmLWlYs3NqyQK8aXIxocv0woHet2i2nbKMpSbOfOhbY58FcNDC2qedTE
VvRXmk4ZAAGvAyYk1gAAWTZ4wo9Wu9dnCCo8RgnBy0pYqGu+VQj4IoMtLV3Bbt1M
9UTjXR8nBL3xR+5UxYHHaMDwtf1d9SAXXgZ7L7nB1TWc9uB7mjPYJb2pKj+NsO78
stCSVUIj1cBsMPug+QsOk5RlrcEW+SAEqEzf7uVkijjtC4lr6t0dLE7rXNUEN03l
7CJkXyIJgEuc/BnqoT+5kSE4lwIDAQABMA0GCSqGSIb3DQEBCwUAA4IBAQBUZzka
HiJ/YCEU2TTQW8vufFOpdFOyOJhbH9P99cHMxOXARS8dt+zx3V8TUNtEr4kXmVxf
xIfvAJZ5yMkMA8XLAKxCRuDvKMRqgAa1f0hdnn9kzCAnk+JILfcenj66kasJeD72
YQeEGU9g05p9nIfcLz3RcmL8m8RsSt6JuFn3lgrvbctWG2tLHUuLRqyZWNPTHSTQ
bqs4bI6igTuDHa4N5TNd0SjDJJ14wA/LipTG+WIS9VorJnD4hR5BA38w6BIX9jOf
o7GO9itg82du+4Rhqx+vx870H6EQ3JDWD5+F4l6ffsM37KEv/FdCIK8G13aYyVwQ
2zwn4Ga5s5OX32Zd
-----END CERTIFICATE-----
